target datalayout = "e-m:e-p270:32:32-p271:32:32-p272:64:64-i64:64-i128:128-f80:128-n8:16:32:64-S128"
target triple = "x86_64-pc-linux-gnu"

%class.ReplFixture = type { ptr, %"class.std::unique_ptr", %"class.std::__cxx11::basic_string" }
%"class.std::unique_ptr" = type { %"struct.std::__uniq_ptr_data" }
%"struct.std::__uniq_ptr_data" = type { %"class.std::__uniq_ptr_impl" }
%"class.std::__uniq_ptr_impl" = type { %"class.std::tuple" }
%"class.std::tuple" = type { %"struct.std::_Tuple_impl" }
%"struct.std::_Tuple_impl" = type { %"struct.std::_Tuple_impl.0", %"struct.std::_Head_base.1" }
%"struct.std::_Tuple_impl.0" = type { %"struct.std::_Head_base" }
%"struct.std::_Head_base" = type { ptr }
%"struct.std::_Head_base.1" = type { ptr }
%"class.std::__cxx11::basic_string" = type { %"struct.std::__cxx11::basic_string<char>::_Alloc_hider", i64, %union.anon.2 }
%"struct.std::__cxx11::basic_string<char>::_Alloc_hider" = type { ptr }
%union.anon.2 = type { i64, [8 x i8] }
%"struct.(anonymous namespace)::DOCTEST_ANON_CLASS_36" = type { %class.ReplFixture }

; Function Attrs: mustprogress uwtable
define internal void @_ZN12_GLOBAL__N_121DOCTEST_ANON_CLASS_36C2Ev(ptr noundef nonnull align 8 dereferenceable(56) %0) unnamed_addr #6 align 2 {
  %2 = alloca ptr, align 8
  store ptr %0, ptr %2, align 8
  %3 = load ptr, ptr %2, align 8
  call void @_ZN11ReplFixtureC2Ev(ptr noundef nonnull align 8 dereferenceable(56) %3)
  ret void
}

; Function Attrs: mustprogress uwtable
define internal void @_ZN12_GLOBAL__N_120DOCTEST_ANON_FUNC_37Ev() #6 personality ptr @__gxx_personality_v0 {
  %1 = alloca %"struct.(anonymous namespace)::DOCTEST_ANON_CLASS_36", align 8
  %2 = alloca ptr, align 8
  %3 = alloca i32, align 4
  call void @_ZN12_GLOBAL__N_121DOCTEST_ANON_CLASS_36C2Ev(ptr noundef nonnull align 8 dereferenceable(56) %1)
  invoke void @_ZN12_GLOBAL__N_121DOCTEST_ANON_CLASS_361fEv(ptr noundef nonnull align 8 dereferenceable(56) %1)
          to label %4 unwind label %5

4:                                                ; preds = %0
  call void @_ZN12_GLOBAL__N_121DOCTEST_ANON_CLASS_36D2Ev(ptr noundef nonnull align 8 dereferenceable(56) %1) #5
  ret void

5:                                                ; preds = %0
  %6 = landingpad { ptr, i32 }
          cleanup
  %7 = extractvalue { ptr, i32 } %6, 0
  store ptr %7, ptr %2, align 8
  %8 = extractvalue { ptr, i32 } %6, 1
  store i32 %8, ptr %3, align 4
  call void @_ZN12_GLOBAL__N_121DOCTEST_ANON_CLASS_36D2Ev(ptr noundef nonnull align 8 dereferenceable(56) %1) #5
  br label %9

9:                                                ; preds = %5
  %10 = load ptr, ptr %2, align 8
  %11 = load i32, ptr %3, align 4
  %12 = insertvalue { ptr, i32 } poison, ptr %10, 0
  %13 = insertvalue { ptr, i32 } %12, i32 %11, 1
  resume { ptr, i32 } %13
}