; Function Attrs: mustprogress uwtable
define internal void @_ZN12_GLOBAL__N_120DOCTEST_ANON_FUNC_37Ev() #4 personality ptr @__gxx_personality_v0 {
  %1 = alloca %"struct.(anonymous namespace)::DOCTEST_ANON_CLASS_36", align 8
  call void @_ZN11ReplFixtureC2Ev(ptr noundef nonnull align 8 dereferenceable(56) %1)
  invoke fastcc void @_ZN12_GLOBAL__N_121DOCTEST_ANON_CLASS_361fEv(ptr noundef nonnull align 8 dereferenceable(56) %1)
          to label %2 unwind label %12

2:                                                ; preds = %0
  %3 = getelementptr inbounds i8, ptr %1, i64 24
  call void @_ZNSt7__cxx1112basic_stringIcSt11char_traitsIcESaIcEED1Ev(ptr noundef nonnull align 8 dereferenceable(32) %3) #15
  %4 = getelementptr inbounds i8, ptr %1, i64 16
  %5 = load ptr, ptr %4, align 8
  %.not.i.i.i = icmp eq ptr %5, null
  br i1 %.not.i.i.i, label %_ZN12_GLOBAL__N_121DOCTEST_ANON_CLASS_36D2Ev.exit, label %6

6:                                                ; preds = %2
  %7 = getelementptr inbounds i8, ptr %1, i64 8
  %8 = load ptr, ptr %7, align 8
  invoke void %8(ptr noundef nonnull %5)
          to label %_ZN12_GLOBAL__N_121DOCTEST_ANON_CLASS_36D2Ev.exit unwind label %9

9:                                                ; preds = %6
  %10 = landingpad { ptr, i32 }
          catch ptr null
  %11 = extractvalue { ptr, i32 } %10, 0
  call void @__clang_call_terminate(ptr %11) #16
  unreachable

_ZN12_GLOBAL__N_121DOCTEST_ANON_CLASS_36D2Ev.exit: ; preds = %2, %6
  ret void

12:                                               ; preds = %0
  %13 = landingpad { ptr, i32 }
          cleanup
  call fastcc void @_ZN12_GLOBAL__N_121DOCTEST_ANON_CLASS_36D2Ev(ptr noundef nonnull align 8 dereferenceable(56) %1) #15
  resume { ptr, i32 } %13
}